target datalayout = "e-m:e-p270:32:32-p271:32:32-p272:64:64-i64:64-i128:128-f80:128-n8:16:32:64-S128"
target triple = "x86_64-pc-linux-gnu"

%class.LIR_Opr = type { i64 }
%class.LIRAccess = type { ptr, i64, %class.LIRAddressOpr, %class.LIRAddressOpr, i8, %class.LIR_Opr, ptr, ptr }
%class.LIRAddressOpr = type { ptr, %class.LIR_Opr }

@_ZN11LIR_OprFact10illegalOprE = external global %class.LIR_Opr, align 8
@ShenandoahSATBBarrier = external global i8, align 1

; Function Attrs: mustprogress nounwind uwtable
define linkonce_odr hidden noundef zeroext i1 @_Z17is_reference_type9BasicTypeb(i8 noundef zeroext %0, i1 noundef zeroext %1) #1 comdat {
  %3 = alloca i8, align 1
  %4 = alloca i8, align 1
  store i8 %0, ptr %3, align 1
  %5 = zext i1 %1 to i8
  store i8 %5, ptr %4, align 1
  %6 = load i8, ptr %3, align 1
  %7 = zext i8 %6 to i32
  %8 = icmp eq i32 %7, 12
  br i1 %8, label %22, label %9

9:                                                ; preds = %2
  %10 = load i8, ptr %3, align 1
  %11 = zext i8 %10 to i32
  %12 = icmp eq i32 %11, 13
  br i1 %12, label %22, label %13

13:                                               ; preds = %9
  %14 = load i8, ptr %4, align 1
  %15 = trunc i8 %14 to i1
  br i1 %15, label %16, label %20

16:                                               ; preds = %13
  %17 = load i8, ptr %3, align 1
  %18 = zext i8 %17 to i32
  %19 = icmp eq i32 %18, 16
  br label %20

20:                                               ; preds = %16, %13
  %21 = phi i1 [ false, %13 ], [ %19, %16 ]
  br label %22

22:                                               ; preds = %20, %9, %2
  %23 = phi i1 [ true, %9 ], [ true, %2 ], [ %21, %20 ]
  ret i1 %23
}

; Function Attrs: mustprogress nounwind uwtable
define linkonce_odr hidden i64 @_ZNK9LIRAccess13resolved_addrEv(ptr noundef nonnull align 8 dereferenceable(80) %0) #1 comdat align 2 {
  %2 = alloca %class.LIR_Opr, align 8
  %3 = alloca ptr, align 8
  store ptr %0, ptr %3, align 8
  %4 = load ptr, ptr %3, align 8
  %5 = getelementptr inbounds %class.LIRAccess, ptr %4, i32 0, i32 5
  call void @llvm.memcpy.p0.p0.i64(ptr align 8 %2, ptr align 8 %5, i64 8, i1 false)
  %6 = getelementptr inbounds %class.LIR_Opr, ptr %2, i32 0, i32 0
  %7 = load i64, ptr %6, align 8
  ret i64 %7
}

; Function Attrs: mustprogress nounwind uwtable
define linkonce_odr hidden noundef i64 @_ZNK9LIRAccess10decoratorsEv(ptr noundef nonnull align 8 dereferenceable(80) %0) #1 comdat align 2 {
  %2 = alloca ptr, align 8
  store ptr %0, ptr %2, align 8
  %3 = load ptr, ptr %2, align 8
  %4 = getelementptr inbounds %class.LIRAccess, ptr %3, i32 0, i32 1
  %5 = load i64, ptr %4, align 8
  ret i64 %5
}

; Function Attrs: mustprogress nounwind uwtable
define linkonce_odr hidden noundef nonnull align 8 dereferenceable(8) ptr @_ZN9LIRAccess16access_emit_infoEv(ptr noundef nonnull align 8 dereferenceable(80) %0) #1 comdat align 2 {
  %2 = alloca ptr, align 8
  store ptr %0, ptr %2, align 8
  %3 = load ptr, ptr %2, align 8
  %4 = getelementptr inbounds %class.LIRAccess, ptr %3, i32 0, i32 7
  ret ptr %4
}

; Function Attrs: mustprogress nounwind uwtable
define linkonce_odr hidden noundef ptr @_ZNK9LIRAccess3genEv(ptr noundef nonnull align 8 dereferenceable(80) %0) #1 comdat align 2 {
  %2 = alloca ptr, align 8
  store ptr %0, ptr %2, align 8
  %3 = load ptr, ptr %2, align 8
  %4 = getelementptr inbounds %class.LIRAccess, ptr %3, i32 0, i32 0
  %5 = load ptr, ptr %4, align 8
  ret ptr %5
}

; Function Attrs: mustprogress nounwind uwtable
define linkonce_odr hidden noundef zeroext i1 @_ZNK9LIRAccess6is_oopEv(ptr noundef nonnull align 8 dereferenceable(80) %0) #1 comdat align 2 {
  %2 = alloca ptr, align 8
  store ptr %0, ptr %2, align 8
  %3 = load ptr, ptr %2, align 8
  %4 = getelementptr inbounds %class.LIRAccess, ptr %3, i32 0, i32 4
  %5 = load i8, ptr %4, align 8
  %6 = call noundef zeroext i1 @_Z17is_reference_type9BasicTypeb(i8 noundef zeroext %5, i1 noundef zeroext false)
  ret i1 %6
}

; Function Attrs: mustprogress nounwind uwtable
define hidden void @_ZN22ShenandoahBarrierSetC117store_at_resolvedER9LIRAccess7LIR_Opr(ptr noundef nonnull align 8 dereferenceable(48) %0, ptr noundef nonnull align 8 dereferenceable(80) %1, i64 %2) unnamed_addr #1 align 2 {
  %4 = alloca %class.LIR_Opr, align 8
  %5 = alloca ptr, align 8
  %6 = alloca ptr, align 8
  %7 = alloca %class.LIR_Opr, align 8
  %8 = alloca %class.LIR_Opr, align 8
  %9 = alloca %class.LIR_Opr, align 8
  %10 = alloca %class.LIR_Opr, align 8
  %11 = alloca %class.LIR_Opr, align 8
  %12 = getelementptr inbounds %class.LIR_Opr, ptr %4, i32 0, i32 0
  store i64 %2, ptr %12, align 8
  store ptr %0, ptr %5, align 8
  store ptr %1, ptr %6, align 8
  %13 = load ptr, ptr %5, align 8
  %14 = load ptr, ptr %6, align 8
  %15 = call noundef zeroext i1 @_ZNK9LIRAccess6is_oopEv(ptr noundef nonnull align 8 dereferenceable(80) %14)
  br i1 %15, label %16, label %46

16:                                               ; preds = %3
  %17 = load i8, ptr @ShenandoahSATBBarrier, align 1
  %18 = trunc i8 %17 to i1
  br i1 %18, label %19, label %34

19:                                               ; preds = %16
  %20 = load ptr, ptr %6, align 8
  %21 = call noundef ptr @_ZNK9LIRAccess3genEv(ptr noundef nonnull align 8 dereferenceable(80) %20)
  %22 = load ptr, ptr %6, align 8
  %23 = call noundef nonnull align 8 dereferenceable(8) ptr @_ZN9LIRAccess16access_emit_infoEv(ptr noundef nonnull align 8 dereferenceable(80) %22)
  %24 = load ptr, ptr %23, align 8
  %25 = load ptr, ptr %6, align 8
  %26 = call noundef i64 @_ZNK9LIRAccess10decoratorsEv(ptr noundef nonnull align 8 dereferenceable(80) %25)
  %27 = load ptr, ptr %6, align 8
  %28 = call i64 @_ZNK9LIRAccess13resolved_addrEv(ptr noundef nonnull align 8 dereferenceable(80) %27)
  %29 = getelementptr inbounds %class.LIR_Opr, ptr %7, i32 0, i32 0
  store i64 %28, ptr %29, align 8
  call void @llvm.memcpy.p0.p0.i64(ptr align 8 %8, ptr align 8 @_ZN11LIR_OprFact10illegalOprE, i64 8, i1 false)
  %30 = getelementptr inbounds %class.LIR_Opr, ptr %7, i32 0, i32 0
  %31 = load i64, ptr %30, align 8
  %32 = getelementptr inbounds %class.LIR_Opr, ptr %8, i32 0, i32 0
  %33 = load i64, ptr %32, align 8
  call void @_ZN22ShenandoahBarrierSetC111pre_barrierEP12LIRGeneratorP12CodeEmitInfom7LIR_OprS4_(ptr noundef nonnull align 8 dereferenceable(48) %13, ptr noundef %21, ptr noundef %24, i64 noundef %26, i64 %31, i64 %33)
  br label %34

34:                                               ; preds = %19, %16
  %35 = load ptr, ptr %6, align 8
  %36 = call noundef ptr @_ZNK9LIRAccess3genEv(ptr noundef nonnull align 8 dereferenceable(80) %35)
  call void @llvm.memcpy.p0.p0.i64(ptr align 8 %10, ptr align 8 %4, i64 8, i1 false)
  %37 = load ptr, ptr %6, align 8
  %38 = call noundef nonnull align 8 dereferenceable(8) ptr @_ZN9LIRAccess16access_emit_infoEv(ptr noundef nonnull align 8 dereferenceable(80) %37)
  %39 = load ptr, ptr %38, align 8
  %40 = load ptr, ptr %6, align 8
  %41 = call noundef i64 @_ZNK9LIRAccess10decoratorsEv(ptr noundef nonnull align 8 dereferenceable(80) %40)
  %42 = getelementptr inbounds %class.LIR_Opr, ptr %10, i32 0, i32 0
  %43 = load i64, ptr %42, align 8
  %44 = call i64 @_ZN22ShenandoahBarrierSetC110iu_barrierEP12LIRGenerator7LIR_OprP12CodeEmitInfom(ptr noundef nonnull align 8 dereferenceable(48) %13, ptr noundef %36, i64 %43, ptr noundef %39, i64 noundef %41)
  %45 = getelementptr inbounds %class.LIR_Opr, ptr %9, i32 0, i32 0
  store i64 %44, ptr %45, align 8
  call void @llvm.memcpy.p0.p0.i64(ptr align 8 %4, ptr align 8 %9, i64 8, i1 false)
  br label %46

46:                                               ; preds = %34, %3
  %47 = load ptr, ptr %6, align 8
  call void @llvm.memcpy.p0.p0.i64(ptr align 8 %11, ptr align 8 %4, i64 8, i1 false)
  %48 = getelementptr inbounds %class.LIR_Opr, ptr %11, i32 0, i32 0
  %49 = load i64, ptr %48, align 8
  call void @_ZN12BarrierSetC117store_at_resolvedER9LIRAccess7LIR_Opr(ptr noundef nonnull align 8 dereferenceable(8) %13, ptr noundef nonnull align 8 dereferenceable(80) %47, i64 %49)
  ret void
}