; Function Attrs: mustprogress nounwind uwtable
define hidden void @_ZN22ShenandoahBarrierSetC117store_at_resolvedER9LIRAccess7LIR_Opr(ptr noundef nonnull align 8 dereferenceable(48) %0, ptr noundef nonnull align 8 dereferenceable(80) %1, i64 %2) unnamed_addr #0 align 2 {
  %4 = getelementptr inbounds i8, ptr %1, i64 48
  %5 = load i8, ptr %4, align 8
  %6 = and i8 %5, -2
  %or.cond.i.i = icmp eq i8 %6, 12
  br i1 %or.cond.i.i, label %7, label %24

7:                                                ; preds = %3
  %8 = load i8, ptr @ShenandoahSATBBarrier, align 1
  %9 = trunc i8 %8 to i1
  br i1 %9, label %10, label %17

10:                                               ; preds = %7
  %11 = load ptr, ptr %1, align 8
  %12 = getelementptr inbounds i8, ptr %1, i64 72
  %13 = load ptr, ptr %12, align 8
  %14 = getelementptr inbounds i8, ptr %1, i64 8
  %15 = load i64, ptr %14, align 8
  %16 = getelementptr inbounds i8, ptr %1, i64 56
  %.sroa.0.0.copyload.i = load i64, ptr %16, align 8
  %.sroa.03.0.copyload = load i64, ptr @_ZN11LIR_OprFact10illegalOprE, align 8
  tail call void @_ZN22ShenandoahBarrierSetC111pre_barrierEP12LIRGeneratorP12CodeEmitInfom7LIR_OprS4_(ptr nonnull align 8 poison, ptr noundef %11, ptr noundef %13, i64 noundef %15, i64 %.sroa.0.0.copyload.i, i64 %.sroa.03.0.copyload)
  br label %17

17:                                               ; preds = %10, %7
  %18 = load ptr, ptr %1, align 8
  %19 = getelementptr inbounds i8, ptr %1, i64 72
  %20 = load ptr, ptr %19, align 8
  %21 = getelementptr inbounds i8, ptr %1, i64 8
  %22 = load i64, ptr %21, align 8
  %23 = tail call i64 @_ZN22ShenandoahBarrierSetC110iu_barrierEP12LIRGenerator7LIR_OprP12CodeEmitInfom(ptr nonnull align 8 poison, ptr noundef %18, i64 %2, ptr noundef %20, i64 noundef %22)
  br label %24

24:                                               ; preds = %17, %3
  %.sroa.014.0 = phi i64 [ %23, %17 ], [ %2, %3 ]
  tail call void @_ZN12BarrierSetC117store_at_resolvedER9LIRAccess7LIR_Opr(ptr noundef nonnull align 8 dereferenceable(8) %0, ptr noundef nonnull align 8 dereferenceable(80) %1, i64 %.sroa.014.0) #8
  ret void
}